target datalayout = "e-m:e-p270:32:32-p271:32:32-p272:64:64-i64:64-i128:128-f80:128-n8:16:32:64-S128"
target triple = "x86_64-pc-linux-gnu"

%class.Phase = type { i32, ptr }
%class.Node = type <{ ptr, ptr, ptr, i32, i32, i32, i32, i32, i32, i32, [4 x i8] }>
%struct.NTarjan = type { ptr, i32, i32, ptr, ptr, ptr, ptr, ptr, ptr, ptr, ptr }
%class.PhaseTransform = type { ptr, %class.Phase }
%class.PhaseValues = type { %class.PhaseTransform, i8, ptr, ptr, [137 x ptr], [137 x ptr], [20 x ptr] }

; Function Attrs: mustprogress nounwind uwtable
define linkonce_odr hidden noundef zeroext i1 @_ZN11PhaseValues11hash_deleteEP4Node(ptr noundef nonnull align 8 dereferenceable(2400) %0, ptr noundef %1) #1 comdat align 2 {
  %3 = alloca ptr, align 8
  %4 = alloca ptr, align 8
  store ptr %0, ptr %3, align 8
  store ptr %1, ptr %4, align 8
  %5 = load ptr, ptr %3, align 8
  %6 = getelementptr inbounds %class.PhaseValues, ptr %5, i32 0, i32 2
  %7 = load ptr, ptr %6, align 8
  %8 = load ptr, ptr %4, align 8
  %9 = call noundef zeroext i1 @_ZN8NodeHash11hash_deleteEPK4Node(ptr noundef nonnull align 8 dereferenceable(40) %7, ptr noundef %8)
  ret i1 %9
}

; Function Attrs: mustprogress nounwind uwtable
define linkonce_odr hidden void @_ZN12PhaseIterGVN12replace_nodeEP4NodeS1_(ptr noundef nonnull align 8 dereferenceable(2416) %0, ptr noundef %1, ptr noundef %2) #1 comdat align 2 {
  %4 = alloca ptr, align 8
  %5 = alloca ptr, align 8
  %6 = alloca ptr, align 8
  store ptr %0, ptr %4, align 8
  store ptr %1, ptr %5, align 8
  store ptr %2, ptr %6, align 8
  %7 = load ptr, ptr %4, align 8
  %8 = load ptr, ptr %5, align 8
  call void @_ZN12PhaseIterGVN21add_users_to_worklistEP4Node(ptr noundef nonnull align 8 dereferenceable(2416) %7, ptr noundef %8)
  %9 = load ptr, ptr %5, align 8
  %10 = call noundef zeroext i1 @_ZN11PhaseValues11hash_deleteEP4Node(ptr noundef nonnull align 8 dereferenceable(2400) %7, ptr noundef %9)
  %11 = load ptr, ptr %5, align 8
  %12 = load ptr, ptr %6, align 8
  call void @_ZN12PhaseIterGVN12subsume_nodeEP4NodeS1_(ptr noundef nonnull align 8 dereferenceable(2416) %7, ptr noundef %11, ptr noundef %12)
  ret void
}

; Function Attrs: mustprogress nounwind uwtable
define linkonce_odr hidden noundef ptr @_ZNK4Node2inEj(ptr noundef nonnull align 8 dereferenceable(52) %0, i32 noundef %1) #1 comdat align 2 {
  %3 = alloca ptr, align 8
  %4 = alloca i32, align 4
  store ptr %0, ptr %3, align 8
  store i32 %1, ptr %4, align 4
  %5 = load ptr, ptr %3, align 8
  %6 = getelementptr inbounds %class.Node, ptr %5, i32 0, i32 1
  %7 = load ptr, ptr %6, align 8
  %8 = load i32, ptr %4, align 4
  %9 = zext i32 %8 to i64
  %10 = getelementptr inbounds ptr, ptr %7, i64 %9
  %11 = load ptr, ptr %10, align 8
  ret ptr %11
}

; Function Attrs: mustprogress nounwind uwtable
define linkonce_odr hidden noundef zeroext i1 @_ZNK4Node6is_PhiEv(ptr noundef nonnull align 8 dereferenceable(52) %0) #1 comdat align 2 {
  %2 = alloca ptr, align 8
  store ptr %0, ptr %2, align 8
  %3 = load ptr, ptr %2, align 8
  %4 = getelementptr inbounds %class.Node, ptr %3, i32 0, i32 8
  %5 = load i32, ptr %4, align 4
  %6 = and i32 %5, 15
  %7 = icmp eq i32 %6, 12
  ret i1 %7
}

; Function Attrs: mustprogress nounwind uwtable
define linkonce_odr hidden noundef ptr @_ZNK4Node8fast_outEPPS_(ptr noundef nonnull align 8 dereferenceable(52) %0, ptr noundef %1) #1 comdat align 2 {
  %3 = alloca ptr, align 8
  %4 = alloca ptr, align 8
  store ptr %0, ptr %3, align 8
  store ptr %1, ptr %4, align 8
  %5 = load ptr, ptr %4, align 8
  %6 = load ptr, ptr %5, align 8
  ret ptr %6
}

; Function Attrs: mustprogress nounwind uwtable
define linkonce_odr hidden noundef ptr @_ZNK4Node9fast_outsERPPS_(ptr noundef nonnull align 8 dereferenceable(52) %0, ptr noundef nonnull align 8 dereferenceable(8) %1) #1 comdat align 2 {
  %3 = alloca ptr, align 8
  %4 = alloca ptr, align 8
  %5 = alloca ptr, align 8
  store ptr %0, ptr %3, align 8
  store ptr %1, ptr %4, align 8
  %6 = load ptr, ptr %3, align 8
  %7 = getelementptr inbounds %class.Node, ptr %6, i32 0, i32 2
  %8 = load ptr, ptr %7, align 8
  store ptr %8, ptr %5, align 8
  %9 = load ptr, ptr %5, align 8
  %10 = getelementptr inbounds %class.Node, ptr %6, i32 0, i32 5
  %11 = load i32, ptr %10, align 8
  %12 = zext i32 %11 to i64
  %13 = getelementptr inbounds ptr, ptr %9, i64 %12
  %14 = load ptr, ptr %4, align 8
  store ptr %13, ptr %14, align 8
  %15 = load ptr, ptr %5, align 8
  ret ptr %15
}

; Function Attrs: mustprogress nounwind uwtable
define hidden void @_Z26remove_single_entry_regionP7NTarjanRS0_RP4NodeR12PhaseIterGVN(ptr noundef %0, ptr noundef nonnull align 8 dereferenceable(8) %1, ptr noundef nonnull align 8 dereferenceable(8) %2, ptr noundef nonnull align 8 dereferenceable(2416) %3) #1 {
  %5 = alloca ptr, align 8
  %6 = alloca ptr, align 8
  %7 = alloca ptr, align 8
  %8 = alloca ptr, align 8
  %9 = alloca ptr, align 8
  %10 = alloca ptr, align 8
  %11 = alloca ptr, align 8
  store ptr %0, ptr %5, align 8
  store ptr %1, ptr %6, align 8
  store ptr %2, ptr %7, align 8
  store ptr %3, ptr %8, align 8
  %12 = load ptr, ptr %7, align 8
  %13 = load ptr, ptr %12, align 8
  %14 = call noundef ptr @_ZNK4Node9fast_outsERPPS_(ptr noundef nonnull align 8 dereferenceable(52) %13, ptr noundef nonnull align 8 dereferenceable(8) %9)
  store ptr %14, ptr %10, align 8
  br label %15

15:                                               ; preds = %36, %4
  %16 = load ptr, ptr %10, align 8
  %17 = load ptr, ptr %9, align 8
  %18 = icmp ult ptr %16, %17
  br i1 %18, label %19, label %39

19:                                               ; preds = %15
  %20 = load ptr, ptr %7, align 8
  %21 = load ptr, ptr %20, align 8
  %22 = load ptr, ptr %10, align 8
  %23 = call noundef ptr @_ZNK4Node8fast_outEPPS_(ptr noundef nonnull align 8 dereferenceable(52) %21, ptr noundef %22)
  store ptr %23, ptr %11, align 8
  %24 = load ptr, ptr %11, align 8
  %25 = call noundef zeroext i1 @_ZNK4Node6is_PhiEv(ptr noundef nonnull align 8 dereferenceable(52) %24)
  br i1 %25, label %26, label %35

26:                                               ; preds = %19
  %27 = load ptr, ptr %8, align 8
  %28 = load ptr, ptr %11, align 8
  %29 = load ptr, ptr %11, align 8
  %30 = call noundef ptr @_ZNK4Node2inEj(ptr noundef nonnull align 8 dereferenceable(52) %29, i32 noundef 1)
  call void @_ZN12PhaseIterGVN12replace_nodeEP4NodeS1_(ptr noundef nonnull align 8 dereferenceable(2416) %27, ptr noundef %28, ptr noundef %30)
  %31 = load ptr, ptr %10, align 8
  %32 = getelementptr inbounds ptr, ptr %31, i32 -1
  store ptr %32, ptr %10, align 8
  %33 = load ptr, ptr %9, align 8
  %34 = getelementptr inbounds ptr, ptr %33, i32 -1
  store ptr %34, ptr %9, align 8
  br label %35

35:                                               ; preds = %26, %19
  br label %36

36:                                               ; preds = %35
  %37 = load ptr, ptr %10, align 8
  %38 = getelementptr inbounds ptr, ptr %37, i32 1
  store ptr %38, ptr %10, align 8
  br label %15, !llvm.loop !19

39:                                               ; preds = %15
  %40 = load ptr, ptr %6, align 8
  %41 = load ptr, ptr %40, align 8
  %42 = getelementptr inbounds %struct.NTarjan, ptr %41, i32 0, i32 7
  %43 = load ptr, ptr %42, align 8
  %44 = load ptr, ptr %6, align 8
  store ptr %43, ptr %44, align 8
  %45 = load ptr, ptr %6, align 8
  %46 = load ptr, ptr %45, align 8
  %47 = load ptr, ptr %5, align 8
  %48 = getelementptr inbounds %struct.NTarjan, ptr %47, i32 0, i32 7
  store ptr %46, ptr %48, align 8
  %49 = load ptr, ptr %8, align 8
  %50 = load ptr, ptr %7, align 8
  %51 = load ptr, ptr %50, align 8
  %52 = load ptr, ptr %7, align 8
  %53 = load ptr, ptr %52, align 8
  %54 = call noundef ptr @_ZNK4Node2inEj(ptr noundef nonnull align 8 dereferenceable(52) %53, i32 noundef 1)
  call void @_ZN12PhaseIterGVN12replace_nodeEP4NodeS1_(ptr noundef nonnull align 8 dereferenceable(2416) %49, ptr noundef %51, ptr noundef %54)
  %55 = load ptr, ptr %6, align 8
  %56 = load ptr, ptr %55, align 8
  %57 = getelementptr inbounds %struct.NTarjan, ptr %56, i32 0, i32 0
  %58 = load ptr, ptr %57, align 8
  %59 = load ptr, ptr %7, align 8
  store ptr %58, ptr %59, align 8
  ret void
}