; Function Attrs: mustprogress nounwind uwtable
define hidden void @_Z26remove_single_entry_regionP7NTarjanRS0_RP4NodeR12PhaseIterGVN(ptr nocapture noundef writeonly %0, ptr nocapture noundef nonnull align 8 dereferenceable(8) %1, ptr nocapture noundef nonnull align 8 dereferenceable(8) %2, ptr noundef nonnull align 8 dereferenceable(2416) %3) local_unnamed_addr #0 {
  %5 = load ptr, ptr %2, align 8
  %6 = getelementptr inbounds i8, ptr %5, i64 32
  %7 = load i32, ptr %6, align 8
  %.not = icmp eq i32 %7, 0
  br i1 %.not, label %._crit_edge, label %.lr.ph

.lr.ph:                                           ; preds = %4
  %8 = zext i32 %7 to i64
  %9 = getelementptr inbounds i8, ptr %5, i64 16
  %10 = load ptr, ptr %9, align 8
  %11 = getelementptr inbounds ptr, ptr %10, i64 %8
  %12 = getelementptr inbounds i8, ptr %3, i64 32
  br label %13

13:                                               ; preds = %.lr.ph, %28
  %.023 = phi ptr [ %10, %.lr.ph ], [ %29, %28 ]
  %.02022 = phi ptr [ %11, %.lr.ph ], [ %.121, %28 ]
  %14 = load ptr, ptr %.023, align 8
  %15 = getelementptr inbounds i8, ptr %14, i64 44
  %16 = load i32, ptr %15, align 4
  %17 = and i32 %16, 15
  %18 = icmp eq i32 %17, 12
  br i1 %18, label %19, label %28

19:                                               ; preds = %13
  %20 = getelementptr inbounds i8, ptr %14, i64 8
  %21 = load ptr, ptr %20, align 8
  %22 = getelementptr inbounds i8, ptr %21, i64 8
  %23 = load ptr, ptr %22, align 8
  tail call void @_ZN12PhaseIterGVN21add_users_to_worklistEP4Node(ptr noundef nonnull align 8 dereferenceable(2416) %3, ptr noundef nonnull %14) #8
  %24 = load ptr, ptr %12, align 8
  %25 = tail call noundef zeroext i1 @_ZN8NodeHash11hash_deleteEPK4Node(ptr noundef nonnull align 8 dereferenceable(40) %24, ptr noundef nonnull %14) #8
  tail call void @_ZN12PhaseIterGVN12subsume_nodeEP4NodeS1_(ptr noundef nonnull align 8 dereferenceable(2416) %3, ptr noundef nonnull %14, ptr noundef %23) #8
  %26 = getelementptr inbounds i8, ptr %.023, i64 -8
  %27 = getelementptr inbounds i8, ptr %.02022, i64 -8
  br label %28

28:                                               ; preds = %13, %19
  %.121 = phi ptr [ %27, %19 ], [ %.02022, %13 ]
  %.1 = phi ptr [ %26, %19 ], [ %.023, %13 ]
  %29 = getelementptr inbounds i8, ptr %.1, i64 8
  %30 = icmp ult ptr %29, %.121
  br i1 %30, label %13, label %._crit_edge, !llvm.loop !19

._crit_edge:                                      ; preds = %28, %4
  %31 = load ptr, ptr %1, align 8
  %32 = getelementptr inbounds i8, ptr %31, i64 48
  %33 = load ptr, ptr %32, align 8
  store ptr %33, ptr %1, align 8
  %34 = getelementptr inbounds i8, ptr %0, i64 48
  store ptr %33, ptr %34, align 8
  %35 = load ptr, ptr %2, align 8
  %36 = getelementptr inbounds i8, ptr %35, i64 8
  %37 = load ptr, ptr %36, align 8
  %38 = getelementptr inbounds i8, ptr %37, i64 8
  %39 = load ptr, ptr %38, align 8
  tail call void @_ZN12PhaseIterGVN21add_users_to_worklistEP4Node(ptr noundef nonnull align 8 dereferenceable(2416) %3, ptr noundef %35) #8
  %40 = getelementptr inbounds i8, ptr %3, i64 32
  %41 = load ptr, ptr %40, align 8
  %42 = tail call noundef zeroext i1 @_ZN8NodeHash11hash_deleteEPK4Node(ptr noundef nonnull align 8 dereferenceable(40) %41, ptr noundef %35) #8
  tail call void @_ZN12PhaseIterGVN12subsume_nodeEP4NodeS1_(ptr noundef nonnull align 8 dereferenceable(2416) %3, ptr noundef %35, ptr noundef %39) #8
  %43 = load ptr, ptr %1, align 8
  %44 = load ptr, ptr %43, align 8
  store ptr %44, ptr %2, align 8
  ret void
}